target datalayout = "e-m:e-p270:32:32-p271:32:32-p272:64:64-i64:64-i128:128-f80:128-n8:16:32:64-S128"
target triple = "x86_64-unknown-linux-gnu"

%class.btTransform = type { %class.btMatrix3x3, %class.btVector3 }
%class.btMatrix3x3 = type { [3 x %class.btVector3] }
%class.btVector3 = type { [4 x float] }
%"struct.btCollisionWorld::LocalRayResult" = type <{ ptr, ptr, %class.btVector3, float, [4 x i8] }>
%struct.BridgeTriangleRaycastCallback = type { %class.btTriangleRaycastCallback, ptr, ptr, ptr, %class.btTransform }
%class.btTriangleRaycastCallback = type { %class.btTriangleCallback, %class.btVector3, %class.btVector3, i32, float }
%class.btTriangleCallback = type { ptr }
%"struct.btCollisionWorld::LocalShapeInfo" = type { i32, i32 }

; Function Attrs: mustprogress nounwind uwtable
define linkonce_odr dso_local void @_ZN9btVector3C2ERKfS1_S1_(ptr noundef nonnull align 4 dereferenceable(16) %this, ptr noundef nonnull align 4 dereferenceable(4) %_x, ptr noundef nonnull align 4 dereferenceable(4) %_y, ptr noundef nonnull align 4 dereferenceable(4) %_z) unnamed_addr #1 comdat align 2 {
entry:
  %this.addr = alloca ptr, align 8
  %_x.addr = alloca ptr, align 8
  %_y.addr = alloca ptr, align 8
  %_z.addr = alloca ptr, align 8
  store ptr %this, ptr %this.addr, align 8
  store ptr %_x, ptr %_x.addr, align 8
  store ptr %_y, ptr %_y.addr, align 8
  store ptr %_z, ptr %_z.addr, align 8
  %this1 = load ptr, ptr %this.addr, align 8
  %0 = load ptr, ptr %_x.addr, align 8
  %1 = load float, ptr %0, align 4
  %m_floats = getelementptr inbounds %class.btVector3, ptr %this1, i32 0, i32 0
  %arrayidx = getelementptr inbounds [4 x float], ptr %m_floats, i64 0, i64 0
  store float %1, ptr %arrayidx, align 4
  %2 = load ptr, ptr %_y.addr, align 8
  %3 = load float, ptr %2, align 4
  %m_floats2 = getelementptr inbounds %class.btVector3, ptr %this1, i32 0, i32 0
  %arrayidx3 = getelementptr inbounds [4 x float], ptr %m_floats2, i64 0, i64 1
  store float %3, ptr %arrayidx3, align 4
  %4 = load ptr, ptr %_z.addr, align 8
  %5 = load float, ptr %4, align 4
  %m_floats4 = getelementptr inbounds %class.btVector3, ptr %this1, i32 0, i32 0
  %arrayidx5 = getelementptr inbounds [4 x float], ptr %m_floats4, i64 0, i64 2
  store float %5, ptr %arrayidx5, align 4
  %m_floats6 = getelementptr inbounds %class.btVector3, ptr %this1, i32 0, i32 0
  %arrayidx7 = getelementptr inbounds [4 x float], ptr %m_floats6, i64 0, i64 3
  store float 0.000000e+00, ptr %arrayidx7, align 4
  ret void
}

; Function Attrs: mustprogress nounwind uwtable
define linkonce_odr dso_local noundef float @_ZNK9btVector33dotERKS_(ptr noundef nonnull align 4 dereferenceable(16) %this, ptr noundef nonnull align 4 dereferenceable(16) %v) #1 comdat align 2 {
entry:
  %this.addr = alloca ptr, align 8
  %v.addr = alloca ptr, align 8
  store ptr %this, ptr %this.addr, align 8
  store ptr %v, ptr %v.addr, align 8
  %this1 = load ptr, ptr %this.addr, align 8
  %m_floats = getelementptr inbounds %class.btVector3, ptr %this1, i32 0, i32 0
  %arrayidx = getelementptr inbounds [4 x float], ptr %m_floats, i64 0, i64 0
  %0 = load float, ptr %arrayidx, align 4
  %1 = load ptr, ptr %v.addr, align 8
  %m_floats2 = getelementptr inbounds %class.btVector3, ptr %1, i32 0, i32 0
  %arrayidx3 = getelementptr inbounds [4 x float], ptr %m_floats2, i64 0, i64 0
  %2 = load float, ptr %arrayidx3, align 4
  %m_floats4 = getelementptr inbounds %class.btVector3, ptr %this1, i32 0, i32 0
  %arrayidx5 = getelementptr inbounds [4 x float], ptr %m_floats4, i64 0, i64 1
  %3 = load float, ptr %arrayidx5, align 4
  %4 = load ptr, ptr %v.addr, align 8
  %m_floats6 = getelementptr inbounds %class.btVector3, ptr %4, i32 0, i32 0
  %arrayidx7 = getelementptr inbounds [4 x float], ptr %m_floats6, i64 0, i64 1
  %5 = load float, ptr %arrayidx7, align 4
  %mul8 = fmul float %3, %5
  %6 = call float @llvm.fmuladd.f32(float %0, float %2, float %mul8)
  %m_floats9 = getelementptr inbounds %class.btVector3, ptr %this1, i32 0, i32 0
  %arrayidx10 = getelementptr inbounds [4 x float], ptr %m_floats9, i64 0, i64 2
  %7 = load float, ptr %arrayidx10, align 4
  %8 = load ptr, ptr %v.addr, align 8
  %m_floats11 = getelementptr inbounds %class.btVector3, ptr %8, i32 0, i32 0
  %arrayidx12 = getelementptr inbounds [4 x float], ptr %m_floats11, i64 0, i64 2
  %9 = load float, ptr %arrayidx12, align 4
  %10 = call float @llvm.fmuladd.f32(float %7, float %9, float %6)
  ret float %10
}

; Function Attrs: mustprogress nounwind uwtable
define linkonce_odr dso_local noundef nonnull align 4 dereferenceable(16) ptr @_ZNK11btMatrix3x3ixEi(ptr noundef nonnull align 4 dereferenceable(48) %this, i32 noundef %i) #1 comdat align 2 {
entry:
  %this.addr = alloca ptr, align 8
  %i.addr = alloca i32, align 4
  store ptr %this, ptr %this.addr, align 8
  store i32 %i, ptr %i.addr, align 4
  %this1 = load ptr, ptr %this.addr, align 8
  %m_el = getelementptr inbounds %class.btMatrix3x3, ptr %this1, i32 0, i32 0
  %0 = load i32, ptr %i.addr, align 4
  %idxprom = sext i32 %0 to i64
  %arrayidx = getelementptr inbounds [3 x %class.btVector3], ptr %m_el, i64 0, i64 %idxprom
  ret ptr %arrayidx
}

; Function Attrs: mustprogress nounwind uwtable
define linkonce_odr dso_local void @_ZN16btCollisionWorld14LocalRayResultC2EPK17btCollisionObjectPNS_14LocalShapeInfoERK9btVector3f(ptr noundef nonnull align 8 dereferenceable(36) %this, ptr noundef %collisionObject, ptr noundef %localShapeInfo, ptr noundef nonnull align 4 dereferenceable(16) %hitNormalLocal, float noundef %hitFraction) unnamed_addr #1 comdat align 2 {
entry:
  %this.addr = alloca ptr, align 8
  %collisionObject.addr = alloca ptr, align 8
  %localShapeInfo.addr = alloca ptr, align 8
  %hitNormalLocal.addr = alloca ptr, align 8
  %hitFraction.addr = alloca float, align 4
  store ptr %this, ptr %this.addr, align 8
  store ptr %collisionObject, ptr %collisionObject.addr, align 8
  store ptr %localShapeInfo, ptr %localShapeInfo.addr, align 8
  store ptr %hitNormalLocal, ptr %hitNormalLocal.addr, align 8
  store float %hitFraction, ptr %hitFraction.addr, align 4
  %this1 = load ptr, ptr %this.addr, align 8
  %m_collisionObject = getelementptr inbounds %"struct.btCollisionWorld::LocalRayResult", ptr %this1, i32 0, i32 0
  %0 = load ptr, ptr %collisionObject.addr, align 8
  store ptr %0, ptr %m_collisionObject, align 8
  %m_localShapeInfo = getelementptr inbounds %"struct.btCollisionWorld::LocalRayResult", ptr %this1, i32 0, i32 1
  %1 = load ptr, ptr %localShapeInfo.addr, align 8
  store ptr %1, ptr %m_localShapeInfo, align 8
  %m_hitNormalLocal = getelementptr inbounds %"struct.btCollisionWorld::LocalRayResult", ptr %this1, i32 0, i32 2
  %2 = load ptr, ptr %hitNormalLocal.addr, align 8
  call void @llvm.memcpy.p0.p0.i64(ptr align 8 %m_hitNormalLocal, ptr align 4 %2, i64 16, i1 false)
  %m_hitFraction = getelementptr inbounds %"struct.btCollisionWorld::LocalRayResult", ptr %this1, i32 0, i32 3
  %3 = load float, ptr %hitFraction.addr, align 4
  store float %3, ptr %m_hitFraction, align 8
  ret void
}

; Function Attrs: mustprogress uwtable
define linkonce_odr dso_local { <2 x float>, <2 x float> } @_ZmlRK11btMatrix3x3RK9btVector3(ptr noundef nonnull align 4 dereferenceable(48) %m, ptr noundef nonnull align 4 dereferenceable(16) %v) #2 comdat {
entry:
  %retval = alloca %class.btVector3, align 4
  %m.addr = alloca ptr, align 8
  %v.addr = alloca ptr, align 8
  %ref.tmp = alloca float, align 4
  %ref.tmp2 = alloca float, align 4
  %ref.tmp5 = alloca float, align 4
  store ptr %m, ptr %m.addr, align 8
  store ptr %v, ptr %v.addr, align 8
  %0 = load ptr, ptr %m.addr, align 8
  %call = call noundef nonnull align 4 dereferenceable(16) ptr @_ZNK11btMatrix3x3ixEi(ptr noundef nonnull align 4 dereferenceable(48) %0, i32 noundef 0)
  %1 = load ptr, ptr %v.addr, align 8
  %call1 = call noundef float @_ZNK9btVector33dotERKS_(ptr noundef nonnull align 4 dereferenceable(16) %call, ptr noundef nonnull align 4 dereferenceable(16) %1)
  store float %call1, ptr %ref.tmp, align 4
  %2 = load ptr, ptr %m.addr, align 8
  %call3 = call noundef nonnull align 4 dereferenceable(16) ptr @_ZNK11btMatrix3x3ixEi(ptr noundef nonnull align 4 dereferenceable(48) %2, i32 noundef 1)
  %3 = load ptr, ptr %v.addr, align 8
  %call4 = call noundef float @_ZNK9btVector33dotERKS_(ptr noundef nonnull align 4 dereferenceable(16) %call3, ptr noundef nonnull align 4 dereferenceable(16) %3)
  store float %call4, ptr %ref.tmp2, align 4
  %4 = load ptr, ptr %m.addr, align 8
  %call6 = call noundef nonnull align 4 dereferenceable(16) ptr @_ZNK11btMatrix3x3ixEi(ptr noundef nonnull align 4 dereferenceable(48) %4, i32 noundef 2)
  %5 = load ptr, ptr %v.addr, align 8
  %call7 = call noundef float @_ZNK9btVector33dotERKS_(ptr noundef nonnull align 4 dereferenceable(16) %call6, ptr noundef nonnull align 4 dereferenceable(16) %5)
  store float %call7, ptr %ref.tmp5, align 4
  call void @_ZN9btVector3C2ERKfS1_S1_(ptr noundef nonnull align 4 dereferenceable(16) %retval, ptr noundef nonnull align 4 dereferenceable(4) %ref.tmp, ptr noundef nonnull align 4 dereferenceable(4) %ref.tmp2, ptr noundef nonnull align 4 dereferenceable(4) %ref.tmp5)
  %coerce.dive = getelementptr inbounds %class.btVector3, ptr %retval, i32 0, i32 0
  %6 = load { <2 x float>, <2 x float> }, ptr %coerce.dive, align 4
  ret { <2 x float>, <2 x float> } %6
}

; Function Attrs: mustprogress nounwind uwtable
define linkonce_odr dso_local noundef nonnull align 4 dereferenceable(48) ptr @_ZN11btTransform8getBasisEv(ptr noundef nonnull align 4 dereferenceable(64) %this) #1 comdat align 2 {
entry:
  %this.addr = alloca ptr, align 8
  store ptr %this, ptr %this.addr, align 8
  %this1 = load ptr, ptr %this.addr, align 8
  %m_basis = getelementptr inbounds %class.btTransform, ptr %this1, i32 0, i32 0
  ret ptr %m_basis
}

; Function Attrs: mustprogress uwtable
define internal noundef float @_ZZN16btCollisionWorld21rayTestSingleInternalERK11btTransformS2_PK24btCollisionObjectWrapperRNS_17RayResultCallbackEEN29BridgeTriangleRaycastCallback9reportHitERK9btVector3fii(ptr noundef nonnull align 8 dereferenceable(136) %this, ptr noundef nonnull align 4 dereferenceable(16) %hitNormalLocal, float noundef %hitFraction, i32 noundef %partId, i32 noundef %triangleIndex) unnamed_addr #5 align 2 {
entry:
  %this.addr = alloca ptr, align 8
  %hitNormalLocal.addr = alloca ptr, align 8
  %hitFraction.addr = alloca float, align 4
  %partId.addr = alloca i32, align 4
  %triangleIndex.addr = alloca i32, align 4
  %shapeInfo = alloca %"struct.btCollisionWorld::LocalShapeInfo", align 4
  %hitNormalWorld = alloca %class.btVector3, align 4
  %rayResult = alloca %"struct.btCollisionWorld::LocalRayResult", align 8
  %normalInWorldSpace = alloca i8, align 1
  store ptr %this, ptr %this.addr, align 8
  store ptr %hitNormalLocal, ptr %hitNormalLocal.addr, align 8
  store float %hitFraction, ptr %hitFraction.addr, align 4
  store i32 %partId, ptr %partId.addr, align 4
  store i32 %triangleIndex, ptr %triangleIndex.addr, align 4
  %this1 = load ptr, ptr %this.addr, align 8
  %0 = load i32, ptr %partId.addr, align 4
  %m_shapePart = getelementptr inbounds %"struct.btCollisionWorld::LocalShapeInfo", ptr %shapeInfo, i32 0, i32 0
  store i32 %0, ptr %m_shapePart, align 4
  %1 = load i32, ptr %triangleIndex.addr, align 4
  %m_triangleIndex = getelementptr inbounds %"struct.btCollisionWorld::LocalShapeInfo", ptr %shapeInfo, i32 0, i32 1
  store i32 %1, ptr %m_triangleIndex, align 4
  %m_colObjWorldTransform = getelementptr inbounds %struct.BridgeTriangleRaycastCallback, ptr %this1, i32 0, i32 4
  %call = call noundef nonnull align 4 dereferenceable(48) ptr @_ZN11btTransform8getBasisEv(ptr noundef nonnull align 4 dereferenceable(64) %m_colObjWorldTransform)
  %2 = load ptr, ptr %hitNormalLocal.addr, align 8
  %call2 = call { <2 x float>, <2 x float> } @_ZmlRK11btMatrix3x3RK9btVector3(ptr noundef nonnull align 4 dereferenceable(48) %call, ptr noundef nonnull align 4 dereferenceable(16) %2)
  %coerce.dive = getelementptr inbounds %class.btVector3, ptr %hitNormalWorld, i32 0, i32 0
  %3 = getelementptr inbounds { <2 x float>, <2 x float> }, ptr %coerce.dive, i32 0, i32 0
  %4 = extractvalue { <2 x float>, <2 x float> } %call2, 0
  store <2 x float> %4, ptr %3, align 4
  %5 = getelementptr inbounds { <2 x float>, <2 x float> }, ptr %coerce.dive, i32 0, i32 1
  %6 = extractvalue { <2 x float>, <2 x float> } %call2, 1
  store <2 x float> %6, ptr %5, align 4
  %m_collisionObject = getelementptr inbounds %struct.BridgeTriangleRaycastCallback, ptr %this1, i32 0, i32 2
  %7 = load ptr, ptr %m_collisionObject, align 8
  %8 = load float, ptr %hitFraction.addr, align 4
  call void @_ZN16btCollisionWorld14LocalRayResultC2EPK17btCollisionObjectPNS_14LocalShapeInfoERK9btVector3f(ptr noundef nonnull align 8 dereferenceable(36) %rayResult, ptr noundef %7, ptr noundef %shapeInfo, ptr noundef nonnull align 4 dereferenceable(16) %hitNormalWorld, float noundef %8)
  store i8 1, ptr %normalInWorldSpace, align 1
  %m_resultCallback = getelementptr inbounds %struct.BridgeTriangleRaycastCallback, ptr %this1, i32 0, i32 1
  %9 = load ptr, ptr %m_resultCallback, align 8
  %10 = load i8, ptr %normalInWorldSpace, align 1
  %tobool = trunc i8 %10 to i1
  %vtable = load ptr, ptr %9, align 8
  %vfn = getelementptr inbounds ptr, ptr %vtable, i64 3
  %11 = load ptr, ptr %vfn, align 8
  %call3 = call noundef float %11(ptr noundef nonnull align 8 dereferenceable(36) %9, ptr noundef nonnull align 8 dereferenceable(36) %rayResult, i1 noundef zeroext %tobool)
  ret float %call3
}