; Function Attrs: mustprogress uwtable
define internal noundef float @_ZZN16btCollisionWorld21rayTestSingleInternalERK11btTransformS2_PK24btCollisionObjectWrapperRNS_17RayResultCallbackEEN29BridgeTriangleRaycastCallback9reportHitERK9btVector3fii(ptr nocapture noundef nonnull readonly align 8 dereferenceable(136) %this, ptr nocapture noundef nonnull readonly align 4 dereferenceable(16) %hitNormalLocal, float noundef %hitFraction, i32 noundef %partId, i32 noundef %triangleIndex) unnamed_addr #5 align 2 {
entry:
  %shapeInfo = alloca %"struct.btCollisionWorld::LocalShapeInfo", align 4
  %rayResult = alloca %"struct.btCollisionWorld::LocalRayResult", align 8
  store i32 %partId, ptr %shapeInfo, align 4
  %m_triangleIndex = getelementptr inbounds i8, ptr %shapeInfo, i64 4
  store i32 %triangleIndex, ptr %m_triangleIndex, align 4
  %m_colObjWorldTransform = getelementptr inbounds i8, ptr %this, i64 72
  %0 = load <4 x float>, ptr %m_colObjWorldTransform, align 8
  %1 = shufflevector <4 x float> %0, <4 x float> poison, <2 x i32> <i32 0, i32 poison>
  %2 = load float, ptr %hitNormalLocal, align 4
  %arrayidx5.i.i = getelementptr inbounds i8, ptr %this, i64 76
  %3 = load <4 x float>, ptr %arrayidx5.i.i, align 4
  %4 = shufflevector <4 x float> %3, <4 x float> poison, <2 x i32> <i32 0, i32 poison>
  %arrayidx7.i.i = getelementptr inbounds i8, ptr %hitNormalLocal, i64 4
  %5 = load float, ptr %arrayidx7.i.i, align 4
  %arrayidx10.i.i = getelementptr inbounds i8, ptr %this, i64 80
  %6 = load <4 x float>, ptr %arrayidx10.i.i, align 8
  %7 = shufflevector <4 x float> %6, <4 x float> poison, <2 x i32> <i32 0, i32 poison>
  %arrayidx12.i.i = getelementptr inbounds i8, ptr %hitNormalLocal, i64 8
  %8 = load float, ptr %arrayidx12.i.i, align 4
  %arrayidx.i.i = getelementptr inbounds i8, ptr %this, i64 88
  %9 = load float, ptr %arrayidx.i.i, align 8
  %arrayidx5.i5.i = getelementptr inbounds i8, ptr %this, i64 92
  %10 = load float, ptr %arrayidx5.i5.i, align 4
  %arrayidx10.i8.i = getelementptr inbounds i8, ptr %this, i64 96
  %11 = load float, ptr %arrayidx10.i8.i, align 8
  %12 = insertelement <2 x float> poison, float %5, i64 0
  %13 = shufflevector <2 x float> %12, <2 x float> poison, <2 x i32> zeroinitializer
  %14 = insertelement <2 x float> %4, float %10, i64 1
  %15 = fmul <2 x float> %13, %14
  %16 = insertelement <2 x float> %1, float %9, i64 1
  %17 = insertelement <2 x float> poison, float %2, i64 0
  %18 = shufflevector <2 x float> %17, <2 x float> poison, <2 x i32> zeroinitializer
  %19 = tail call <2 x float> @llvm.fmuladd.v2f32(<2 x float> %16, <2 x float> %18, <2 x float> %15)
  %20 = insertelement <2 x float> %7, float %11, i64 1
  %21 = insertelement <2 x float> poison, float %8, i64 0
  %22 = shufflevector <2 x float> %21, <2 x float> poison, <2 x i32> zeroinitializer
  %23 = tail call <2 x float> @llvm.fmuladd.v2f32(<2 x float> %20, <2 x float> %22, <2 x float> %19)
  %arrayidx.i10.i = getelementptr inbounds i8, ptr %this, i64 104
  %24 = load float, ptr %arrayidx.i10.i, align 8
  %arrayidx5.i11.i = getelementptr inbounds i8, ptr %this, i64 108
  %25 = load float, ptr %arrayidx5.i11.i, align 4
  %mul8.i13.i = fmul float %5, %25
  %26 = tail call float @llvm.fmuladd.f32(float %24, float %2, float %mul8.i13.i)
  %arrayidx10.i14.i = getelementptr inbounds i8, ptr %this, i64 112
  %27 = load float, ptr %arrayidx10.i14.i, align 8
  %28 = tail call noundef float @llvm.fmuladd.f32(float %27, float %8, float %26)
  %retval.sroa.3.12.vec.insert.i = insertelement <2 x float> <float poison, float 0.000000e+00>, float %28, i64 0
  %m_collisionObject = getelementptr inbounds i8, ptr %this, i64 56
  %29 = load ptr, ptr %m_collisionObject, align 8
  store ptr %29, ptr %rayResult, align 8
  %m_localShapeInfo.i = getelementptr inbounds i8, ptr %rayResult, i64 8
  store ptr %shapeInfo, ptr %m_localShapeInfo.i, align 8
  %m_hitNormalLocal.i = getelementptr inbounds i8, ptr %rayResult, i64 16
  store <2 x float> %23, ptr %m_hitNormalLocal.i, align 8
  %hitNormalWorld.sroa.2.0.m_hitNormalLocal.i.sroa_idx = getelementptr inbounds i8, ptr %rayResult, i64 24
  store <2 x float> %retval.sroa.3.12.vec.insert.i, ptr %hitNormalWorld.sroa.2.0.m_hitNormalLocal.i.sroa_idx, align 8
  %m_hitFraction.i = getelementptr inbounds i8, ptr %rayResult, i64 32
  store float %hitFraction, ptr %m_hitFraction.i, align 8
  %m_resultCallback = getelementptr inbounds i8, ptr %this, i64 48
  %30 = load ptr, ptr %m_resultCallback, align 8
  %vtable = load ptr, ptr %30, align 8
  %vfn = getelementptr inbounds i8, ptr %vtable, i64 24
  %31 = load ptr, ptr %vfn, align 8
  %call3 = call noundef float %31(ptr noundef nonnull align 8 dereferenceable(36) %30, ptr noundef nonnull align 8 dereferenceable(36) %rayResult, i1 noundef zeroext true)
  ret float %call3
}